CCS PCM C Compiler, Version 5.007, 61971               09-Tem-23 13:02

               Filename:   C:\Users\berki\Desktop\Mikro Projeler\Trafic Lights\main.lst

               ROM used:   130 words (13%)
                           Largest free fragment is 894
               RAM used:   5 (7%) at main() level
                           6 (9%) worst case
               Stack used: 0 locations
               Stack size: 8

*
0000:  MOVLW  00
0001:  MOVWF  0A
0002:  GOTO   018
0003:  NOP
.................... #include <main.h> 
.................... #include <16F84.h> 
.................... //////// Standard Header file for the PIC16F84 device //////////////// 
.................... #device PIC16F84 
....................  
.................... #list 
....................  
....................  
.................... #FUSES NOWDT                 	//No Watch Dog Timer 
....................  
.................... #use delay(crystal=4MHz) 
0004:  MOVLW  12
0005:  MOVWF  04
0006:  MOVF   00,W
0007:  BTFSC  03.2
0008:  GOTO   017
0009:  MOVLW  01
000A:  MOVWF  0D
000B:  CLRF   0C
000C:  DECFSZ 0C,F
000D:  GOTO   00C
000E:  DECFSZ 0D,F
000F:  GOTO   00B
0010:  MOVLW  4A
0011:  MOVWF  0C
0012:  DECFSZ 0C,F
0013:  GOTO   012
0014:  GOTO   015
0015:  DECFSZ 00,F
0016:  GOTO   009
0017:  RETURN
.................... #use FIXED_IO( B_outputs=PIN_B7,PIN_B6,PIN_B5,PIN_B4,PIN_B3,PIN_B2,PIN_B1,PIN_B0 ) 
....................  
....................  
....................  
.................... void main() 
0018:  MOVLW  1F
0019:  ANDWF  03,F
.................... { 
....................  
....................    set_tris_b(0x00); 
001A:  MOVLW  00
001B:  BSF    03.5
001C:  MOVWF  06
....................    output_b(0x00); 
001D:  CLRF   06
001E:  BCF    03.5
001F:  CLRF   06
....................     
....................  
....................     
....................     
....................    while(TRUE) 
....................    { 
....................       output_high(pin_B0); 
0020:  MOVLW  00
0021:  BSF    03.5
0022:  MOVWF  06
0023:  BCF    03.5
0024:  BSF    06.0
....................       output_high(pin_B5); 
0025:  BSF    03.5
0026:  MOVWF  06
0027:  BCF    03.5
0028:  BSF    06.5
....................       delay_ms(5000); 
0029:  MOVLW  14
002A:  MOVWF  11
002B:  MOVLW  FA
002C:  MOVWF  12
002D:  CALL   004
002E:  DECFSZ 11,F
002F:  GOTO   02B
....................       output_low(pin_B0); 
0030:  MOVLW  00
0031:  BSF    03.5
0032:  MOVWF  06
0033:  BCF    03.5
0034:  BCF    06.0
....................       output_low(pin_B5); 
0035:  BSF    03.5
0036:  MOVWF  06
0037:  BCF    03.5
0038:  BCF    06.5
....................       delay_ms(2000); 
0039:  MOVLW  08
003A:  MOVWF  11
003B:  MOVLW  FA
003C:  MOVWF  12
003D:  CALL   004
003E:  DECFSZ 11,F
003F:  GOTO   03B
....................       output_high(pin_B1); 
0040:  MOVLW  00
0041:  BSF    03.5
0042:  MOVWF  06
0043:  BCF    03.5
0044:  BSF    06.1
....................       output_high(pin_B4); 
0045:  BSF    03.5
0046:  MOVWF  06
0047:  BCF    03.5
0048:  BSF    06.4
....................       delay_ms(3000); 
0049:  MOVLW  0C
004A:  MOVWF  11
004B:  MOVLW  FA
004C:  MOVWF  12
004D:  CALL   004
004E:  DECFSZ 11,F
004F:  GOTO   04B
....................       output_low(pin_B1); 
0050:  MOVLW  00
0051:  BSF    03.5
0052:  MOVWF  06
0053:  BCF    03.5
0054:  BCF    06.1
....................       output_low(pin_B4); 
0055:  BSF    03.5
0056:  MOVWF  06
0057:  BCF    03.5
0058:  BCF    06.4
....................       delay_ms(2000); 
0059:  MOVLW  08
005A:  MOVWF  11
005B:  MOVLW  FA
005C:  MOVWF  12
005D:  CALL   004
005E:  DECFSZ 11,F
005F:  GOTO   05B
....................       output_high(pin_B2); 
0060:  MOVLW  00
0061:  BSF    03.5
0062:  MOVWF  06
0063:  BCF    03.5
0064:  BSF    06.2
....................       output_high(pin_B3); 
0065:  BSF    03.5
0066:  MOVWF  06
0067:  BCF    03.5
0068:  BSF    06.3
....................       delay_ms(5000); 
0069:  MOVLW  14
006A:  MOVWF  11
006B:  MOVLW  FA
006C:  MOVWF  12
006D:  CALL   004
006E:  DECFSZ 11,F
006F:  GOTO   06B
....................       output_low(pin_B2); 
0070:  MOVLW  00
0071:  BSF    03.5
0072:  MOVWF  06
0073:  BCF    03.5
0074:  BCF    06.2
....................       output_low(pin_B3); 
0075:  BSF    03.5
0076:  MOVWF  06
0077:  BCF    03.5
0078:  BCF    06.3
....................       delay_ms(1000); 
0079:  MOVLW  04
007A:  MOVWF  11
007B:  MOVLW  FA
007C:  MOVWF  12
007D:  CALL   004
007E:  DECFSZ 11,F
007F:  GOTO   07B
0080:  GOTO   020
....................        
....................        
....................    } 
....................  
.................... } 
0081:  SLEEP

Configuration Fuses:
   Word  1: 3FF1   XT NOWDT PUT NOPROTECT
